target datalayout = "e-m:e-p270:32:32-p271:32:32-p272:64:64-i64:64-i128:128-f80:128-n8:16:32:64-S128"
target triple = "x86_64-pc-linux-gnu"

%class.PLABStats = type { ptr, ptr, i64, i64, i64, i64 }
%class.G1EvacStats = type { %class.PLABStats, i64, i64, %class.AdaptiveWeightedAverage, i64, i32, i64, i64, i64, i64, i64 }
%class.AdaptiveWeightedAverage = type { float, i32, i32, i8, float }

@TargetPLABWastePct = external global i32, align 4
@G1LastPLABAverageOccupancy = external global double, align 8

; Function Attrs: mustprogress nounwind uwtable
define linkonce_odr hidden noundef i64 @_ZNK9PLABStats6unusedEv(ptr noundef nonnull align 8 dereferenceable(48) %0) #1 comdat align 2 {
  %2 = alloca ptr, align 8
  store ptr %0, ptr %2, align 8
  %3 = load ptr, ptr %2, align 8
  %4 = getelementptr inbounds %class.PLABStats, ptr %3, i32 0, i32 5
  %5 = load i64, ptr %4, align 8
  ret i64 %5
}

; Function Attrs: mustprogress nounwind uwtable
define linkonce_odr hidden noundef i64 @_ZNK9PLABStats6wastedEv(ptr noundef nonnull align 8 dereferenceable(48) %0) #1 comdat align 2 {
  %2 = alloca ptr, align 8
  store ptr %0, ptr %2, align 8
  %3 = load ptr, ptr %2, align 8
  %4 = getelementptr inbounds %class.PLABStats, ptr %3, i32 0, i32 3
  %5 = load i64, ptr %4, align 8
  ret i64 %5
}

; Function Attrs: mustprogress nounwind uwtable
define linkonce_odr hidden noundef i64 @_ZNK9PLABStats9allocatedEv(ptr noundef nonnull align 8 dereferenceable(48) %0) #1 comdat align 2 {
  %2 = alloca ptr, align 8
  store ptr %0, ptr %2, align 8
  %3 = load ptr, ptr %2, align 8
  %4 = getelementptr inbounds %class.PLABStats, ptr %3, i32 0, i32 2
  %5 = load i64, ptr %4, align 8
  ret i64 %5
}

; Function Attrs: mustprogress nounwind uwtable
define linkonce_odr hidden noundef i64 @_ZNK9PLABStats4usedEv(ptr noundef nonnull align 8 dereferenceable(48) %0) #1 comdat align 2 {
  %2 = alloca ptr, align 8
  store ptr %0, ptr %2, align 8
  %3 = load ptr, ptr %2, align 8
  %4 = call noundef i64 @_ZNK9PLABStats9allocatedEv(ptr noundef nonnull align 8 dereferenceable(48) %3)
  %5 = call noundef i64 @_ZNK9PLABStats6wastedEv(ptr noundef nonnull align 8 dereferenceable(48) %3)
  %6 = call noundef i64 @_ZNK9PLABStats6unusedEv(ptr noundef nonnull align 8 dereferenceable(48) %3)
  %7 = add i64 %5, %6
  %8 = sub i64 %4, %7
  ret i64 %8
}

; Function Attrs: mustprogress nounwind uwtable
define hidden noundef i64 @_ZNK11G1EvacStats25compute_desired_plab_sizeEv(ptr noundef nonnull align 8 dereferenceable(144) %0) #1 align 2 {
  %2 = alloca ptr, align 8
  %3 = alloca i64, align 8
  %4 = alloca i64, align 8
  store ptr %0, ptr %2, align 8
  %5 = load ptr, ptr %2, align 8
  %6 = call noundef i64 @_ZNK9PLABStats4usedEv(ptr noundef nonnull align 8 dereferenceable(48) %5)
  %7 = getelementptr inbounds %class.G1EvacStats, ptr %5, i32 0, i32 4
  %8 = load i64, ptr %7, align 8
  %9 = icmp ugt i64 %6, %8
  br i1 %9, label %10, label %15

10:                                               ; preds = %1
  %11 = call noundef i64 @_ZNK9PLABStats4usedEv(ptr noundef nonnull align 8 dereferenceable(48) %5)
  %12 = getelementptr inbounds %class.G1EvacStats, ptr %5, i32 0, i32 4
  %13 = load i64, ptr %12, align 8
  %14 = sub i64 %11, %13
  br label %16

15:                                               ; preds = %1
  br label %16

16:                                               ; preds = %15, %10
  %17 = phi i64 [ %14, %10 ], [ 0, %15 ]
  store i64 %17, ptr %3, align 8
  %18 = load i64, ptr %3, align 8
  %19 = load i32, ptr @TargetPLABWastePct, align 4
  %20 = zext i32 %19 to i64
  %21 = mul i64 %18, %20
  store i64 %21, ptr %4, align 8
  %22 = load i64, ptr %4, align 8
  %23 = uitofp i64 %22 to double
  %24 = load double, ptr @G1LastPLABAverageOccupancy, align 8
  %25 = fsub double 1.000000e+02, %24
  %26 = fdiv double %23, %25
  %27 = fptoui double %26 to i64
  ret i64 %27
}