; Function Attrs: mustprogress nofree norecurse nosync nounwind willreturn memory(read, inaccessiblemem: none) uwtable
define hidden noundef i64 @_ZNK11G1EvacStats25compute_desired_plab_sizeEv(ptr nocapture noundef nonnull readonly align 8 dereferenceable(144) %0) local_unnamed_addr #1 align 2 {
  %2 = getelementptr inbounds i8, ptr %0, i64 16
  %3 = load i64, ptr %2, align 8
  %4 = getelementptr inbounds i8, ptr %0, i64 24
  %5 = load i64, ptr %4, align 8
  %6 = getelementptr inbounds i8, ptr %0, i64 40
  %7 = load i64, ptr %6, align 8
  %8 = add i64 %5, %7
  %9 = sub i64 %3, %8
  %10 = getelementptr inbounds i8, ptr %0, i64 88
  %11 = load i64, ptr %10, align 8
  %spec.select = tail call i64 @llvm.usub.sat.i64(i64 %9, i64 %11)
  %12 = load i32, ptr @TargetPLABWastePct, align 4
  %13 = zext i32 %12 to i64
  %14 = mul i64 %spec.select, %13
  %15 = uitofp i64 %14 to double
  %16 = load double, ptr @G1LastPLABAverageOccupancy, align 8
  %17 = fsub double 1.000000e+02, %16
  %18 = fdiv double %15, %17
  %19 = fptoui double %18 to i64
  ret i64 %19
}